; Function Attrs: nounwind uwtable
define range(i32 -27, 1) i32 @PMIx_Info_load(ptr noundef initializes((0, 516), (520, 552)) %0, ptr noundef readonly captures(address_is_null) %1, ptr noundef %2, i16 noundef zeroext %3) local_unnamed_addr #6 {
  %5 = getelementptr inbounds nuw i8, ptr %0, i64 520
  tail call void @llvm.memset.p0.i64(ptr noundef nonnull align 8 dereferenceable(32) %5, i8 0, i64 32, i1 false)
  tail call void @llvm.memset.p0.i64(ptr noundef nonnull align 1 dereferenceable(516) %0, i8 0, i64 516, i1 false)
  %6 = icmp eq ptr %1, null
  br i1 %6, label %pmix_bfrops_base_tma_info_load.exit, label %7

7:                                                ; preds = %4
  tail call void @llvm.memset.p0.i64(ptr noundef nonnull align 1 dereferenceable(512) %0, i8 0, i64 512, i1 false)
  br label %.lr.ph.i.i.i

.lr.ph.i.i.i:                                     ; preds = %10, %7
  %.012.i.i.i = phi i64 [ %11, %10 ], [ 0, %7 ]
  %.0811.i.i.i = phi ptr [ %13, %10 ], [ %0, %7 ]
  %.0910.i.i.i = phi ptr [ %12, %10 ], [ %1, %7 ]
  %8 = load i8, ptr %.0910.i.i.i, align 1, !tbaa !3
  store i8 %8, ptr %.0811.i.i.i, align 1, !tbaa !3
  %9 = icmp eq i8 %8, 0
  br i1 %9, label %pmix_bfrops_base_tma_load_key.exit.i, label %10

10:                                               ; preds = %.lr.ph.i.i.i
  %11 = add nuw nsw i64 %.012.i.i.i, 1
  %12 = getelementptr inbounds nuw i8, ptr %.0910.i.i.i, i64 1
  %13 = getelementptr inbounds nuw i8, ptr %.0811.i.i.i, i64 1
  %exitcond.not.i.i.i = icmp eq i64 %11, 511
  br i1 %exitcond.not.i.i.i, label %pmix_bfrops_base_tma_load_key.exit.i, label %.lr.ph.i.i.i, !llvm.loop !6

pmix_bfrops_base_tma_load_key.exit.i:             ; preds = %10, %.lr.ph.i.i.i
  %.08.lcssa.i.i.i = phi ptr [ %.0811.i.i.i, %.lr.ph.i.i.i ], [ %13, %10 ]
  store i8 0, ptr %.08.lcssa.i.i.i, align 1, !tbaa !3
  tail call void @pmix_bfrops_base_value_load(ptr noundef nonnull %5, ptr noundef %2, i16 noundef zeroext %3) #44
  br label %pmix_bfrops_base_tma_info_load.exit

pmix_bfrops_base_tma_info_load.exit:              ; preds = %4, %pmix_bfrops_base_tma_load_key.exit.i
  %.0.i = phi i32 [ 0, %pmix_bfrops_base_tma_load_key.exit.i ], [ -27, %4 ]
  ret i32 %.0.i
}